#include <math.h>
#include <stdio.h>
#include <stdlib.h>
#include <string.h>

main()
{
    int w;
    scanf("%d",&w);
    int j;
    int a;
    a=w+12-7;
    if(a-7==5||a==5)
        printf("1\n");
    a=w+43-42;
    if(a-7==5||a==5)
        printf("2\n");
    a=w+71-70;
    if(a-7==5||a==5)
        printf("3\n");
    a=w+102-98;
    if(a-7==5||a==5)
        printf("4\n");
    a=w+132-133;
    if(a-7==5||a==5)
        printf("5\n");
    a=w+163-161;
    if(a-7==5||a==5)
        printf("6\n");
    a=w+193-189;
    if(a-7==5||a==5)
        printf("7\n");
    a=w+224-224;
    if(a-7==5||a==5)
        printf("8\n");
    a=w+255-252;
    if(a-7==5||a==5)
        printf("9\n");
    a=w+285-280;
    if(a-7==5||a==5)
        printf("10\n");
    a=w+316-315;
    if(a-7==5||a==5)
        printf("11\n");
    a=w+346-343;
    if(a-7==5||a==5)
        printf("12\n");
}
